LX51 LINKER/LOCATER V4.66.41.0                                                          07/21/2023  21:20:36  PAGE 1


LX51 LINKER/LOCATER V4.66.41.0, INVOKED BY:
D:\KEIL\C51\BIN\LX51.EXE .\BUILD\RELEASE\SRC\DELAY.O, .\BUILD\RELEASE\SRC\LCD1602.O, .\BUILD\RELEASE\SRC\MATIXKEY.O, .\B
>> UILD\RELEASE\SRC\MAIN.O TO .\BUILD\RELEASE\7-21 PRINT (.\build\Release\7-21.map) REMOVEUNUSED


CPU MODE:     8051 MODE
MEMORY MODEL: SMALL


INPUT MODULES INCLUDED:
  .\BUILD\RELEASE\SRC\DELAY.O (DELAY)
         COMMENT TYPE 0: C51 V9.54
  .\BUILD\RELEASE\SRC\LCD1602.O (LCD1602)
         COMMENT TYPE 0: C51 V9.54
  .\BUILD\RELEASE\SRC\MATIXKEY.O (MATIXKEY)
         COMMENT TYPE 0: C51 V9.54
  .\BUILD\RELEASE\SRC\MAIN.O (MAIN)
         COMMENT TYPE 0: C51 V9.54
  D:\KEIL\C51\LIB\C51S.LIB (?C_STARTUP)
         COMMENT TYPE 1: A51 / ASM51 Assembler
  D:\KEIL\C51\LIB\C51S.LIB (?C?CLDOPTR)
         COMMENT TYPE 1: A51 / ASM51 Assembler
  D:\KEIL\C51\LIB\C51S.LIB (?C?IMUL)
         COMMENT TYPE 1: A51 / ASM51 Assembler
  D:\KEIL\C51\LIB\C51S.LIB (?C?UIDIV)
         COMMENT TYPE 1: A51 / ASM51 Assembler


ACTIVE MEMORY CLASSES OF MODULE:  .\BUILD\RELEASE\7-21 (DELAY)

BASE        START       END         USED      MEMORY CLASS
==========================================================
C:000000H   C:000000H   C:00FFFFH   0003E2H   CODE
I:000000H   I:000000H   I:00007FH   000016H   DATA
I:000000H   I:000000H   I:0000FFH   000001H   IDATA


MEMORY MAP OF MODULE:  .\BUILD\RELEASE\7-21 (DELAY)


START     STOP      LENGTH    ALIGN  RELOC    MEMORY CLASS   SEGMENT NAME
=========================================================================

* * * * * * * * * * *   D A T A   M E M O R Y   * * * * * * * * * * * * *
000000H   000007H   000008H   ---    AT..     DATA           "REG BANK 0"
000008H   000010H   000009H   BYTE   UNIT     DATA           _DATA_GROUP_
000011H   000015H   000005H   BYTE   UNIT     DATA           ?DT?MAIN
000016H   000016H   000001H   BYTE   UNIT     IDATA          ?STACK

* * * * * * * * * * *   C O D E   M E M O R Y   * * * * * * * * * * * * *
000000H   000002H   000003H   ---    OFFS..   CODE           ?CO??C_STARTUP?0
000003H   00018BH   000189H   BYTE   UNIT     CODE           ?PR?MATRIXKEY?MATIXKEY
00018CH   000248H   0000BDH   BYTE   UNIT     CODE           ?PR?MAIN?MAIN
000249H   0002DCH   000094H   BYTE   UNIT     CODE           ?C?LIB_CODE
0002DDH   00030FH   000033H   BYTE   UNIT     CODE           ?PR?_LCD_POW?LCD1602
000310H   000332H   000023H   BYTE   UNIT     CODE           ?PR?_LCD_SHOWSTRING?LCD1602
000333H   000350H   00001EH   BYTE   UNIT     CODE           ?PR?_LCD_WRITEDATA?LCD1602
000351H   00036DH   00001DH   BYTE   UNIT     CODE           ?PR?_LCD_SHOWNUM?LCD1602
00036EH   000383H   000016H   BYTE   UNIT     CODE           ?PR?_LCD_SETCURSOR?LCD1602
000384H   000398H   000015H   BYTE   UNIT     CODE           ?PR?_DELAY?DELAY
000399H   0003ACH   000014H   BYTE   UNIT     CODE           ?PR?LCD_INIT?LCD1602
0003ADH   0003BCH   000010H   BYTE   UNIT     CODE           ?CO?MAIN
0003BDH   0003CBH   00000FH   BYTE   UNIT     CODE           ?PR?LCD_DELAY?LCD1602
0003CCH   0003D7H   00000CH   BYTE   UNIT     CODE           ?C_C51STARTUP
0003D8H   0003E1H   00000AH   BYTE   UNIT     CODE           ?PR?_LCD_WRITECOMMAND?LCD1602

LX51 LINKER/LOCATER V4.66.41.0                                                        07/21/2023  21:20:36  PAGE 2


* * * * * * * * *   R E M O V E D     S E G M E N T S   * * * * * * * *
   *DEL*:           00000AH   BYTE   UNIT     CODE           ?PR?_LCD_SHOWCHAR?LCD1602
   *DEL*:           00003AH   BYTE   UNIT     CODE           ?PR?_LCD_SHOWSIGNEDNUM?LCD1602
   *DEL*:           000007H   BYTE   UNIT     DATA           ?DT?_LCD_SHOWSIGNEDNUM?LCD1602
   *DEL*:           000039H   BYTE   UNIT     CODE           ?PR?_LCD_SHOWHEXNUM?LCD1602
   *DEL*:           000005H   BYTE   UNIT     DATA           ?DT?_LCD_SHOWHEXNUM?LCD1602
   *DEL*:           000038H   BYTE   UNIT     CODE           ?PR?_LCD_SHOWBINNUM?LCD1602
   *DEL*:           000005H   BYTE   UNIT     DATA           ?DT?_LCD_SHOWBINNUM?LCD1602



OVERLAY MAP OF MODULE:   .\BUILD\RELEASE\7-21 (DELAY)


FUNCTION/MODULE                  BIT_GROUP   DATA_GROUP 
--> CALLED FUNCTION/MODULE      START  STOP  START  STOP
========================================================
?C_C51STARTUP                   ----- -----  ----- -----
  +--> MAIN/MAIN

MAIN/MAIN                       ----- -----  ----- -----
  +--> LCD_INIT/LCD1602
  +--> ?CO?MAIN
  +--> _LCD_SHOWSTRING/LCD1602
  +--> MATRIXKEY/MATIXKEY
  +--> _LCD_SHOWNUM/LCD1602

LCD_INIT/LCD1602                ----- -----  ----- -----
  +--> _LCD_WRITECOMMAND/LCD1602

_LCD_WRITECOMMAND/LCD1602       ----- -----  ----- -----
  +--> LCD_DELAY/LCD1602

LCD_DELAY/LCD1602               ----- -----  ----- -----

?CO?MAIN                        ----- -----  ----- -----

_LCD_SHOWSTRING/LCD1602         ----- -----  0008H 000AH
  +--> _LCD_SETCURSOR/LCD1602
  +--> _LCD_WRITEDATA/LCD1602

_LCD_SETCURSOR/LCD1602          ----- -----  ----- -----
  +--> _LCD_WRITECOMMAND/LCD1602

_LCD_WRITEDATA/LCD1602          ----- -----  ----- -----
  +--> LCD_DELAY/LCD1602

MATRIXKEY/MATIXKEY              ----- -----  0008H 0008H
  +--> _DELAY/DELAY

_DELAY/DELAY                    ----- -----  ----- -----

_LCD_SHOWNUM/LCD1602            ----- -----  0008H 000CH
  +--> _LCD_SETCURSOR/LCD1602
  +--> _LCD_POW/LCD1602
  +--> _LCD_WRITEDATA/LCD1602

_LCD_POW/LCD1602                ----- -----  000DH 0010H



PUBLIC SYMBOLS OF MODULE:  .\BUILD\RELEASE\7-21 (DELAY)


      VALUE       CLASS    TYPE      PUBLIC SYMBOL NAME
LX51 LINKER/LOCATER V4.66.41.0                                                        07/21/2023  21:20:36  PAGE 3


      =================================================
*DEL*:00000000H   DATA     BYTE      ?_LCD_ShowBinNum?BYTE
*DEL*:00000000H   DATA     BYTE      ?_LCD_ShowHexNum?BYTE
      00000008H   DATA     BYTE      ?_LCD_ShowNum?BYTE
*DEL*:00000000H   DATA     BYTE      ?_LCD_ShowSignedNum?BYTE
      01000249H   CODE     ---       ?C?CLDOPTR
      00000000H   NUMBER   ---       ?C?CODESEG
      01000276H   CODE     ---       ?C?IMUL
      01000288H   CODE     ---       ?C?UIDIV
      00000000H   NUMBER   ---       ?C?XDATASEG
      0100018CH   CODE     ---       ?C_START
      01000000H   CODE     ---       ?C_STARTUP
      01000384H   CODE     ---       _Delay
      010002E9H   CODE     ---       _LCD_Pow
      0100036EH   CODE     ---       _LCD_SetCursor
*DEL*:00000000H   CODE     ---       _LCD_ShowBinNum
*DEL*:00000000H   CODE     ---       _LCD_ShowChar
*DEL*:00000000H   CODE     ---       _LCD_ShowHexNum
      01000351H   CODE     ---       _LCD_ShowNum
*DEL*:00000000H   CODE     ---       _LCD_ShowSignedNum
      01000310H   CODE     ---       _LCD_ShowString
      010003D8H   CODE     ---       _LCD_WriteCommand
      01000347H   CODE     ---       _LCD_WriteData
      00000011H   DATA     WORD      count
      00000015H   DATA     BYTE      KeyNum
      010003C3H   CODE     ---       LCD_Delay
      01000399H   CODE     ---       LCD_Init
      0100018CH   CODE     ---       main
      01000003H   CODE     ---       MatrixKey
      00000013H   DATA     WORD      Password



SYMBOL TABLE OF MODULE:  .\BUILD\RELEASE\7-21 (DELAY)

      VALUE       REP       CLASS    TYPE      SYMBOL NAME
      ====================================================
      ---         MODULE    ---      ---       DELAY
      01000384H   PUBLIC    CODE     ---       _Delay

      01000384H   BLOCK     CODE     ---       LVL=0
      01000384H   BLOCK     CODE     NEAR LAB  LVL=1
      00000005H   SYMBOL    DATA     VOID      i
      00000004H   SYMBOL    DATA     VOID      j
      ---         BLOCKEND  ---      ---       LVL=1
      ---         BLOCKEND  ---      ---       LVL=0

      ---         MODULE    ---      ---       LCD1602
      00000008H   PUBLIC    DATA     BYTE      ?_LCD_ShowNum?BYTE
      01000351H   PUBLIC    CODE     ---       _LCD_ShowNum
      010002E9H   PUBLIC    CODE     ---       _LCD_Pow
      01000310H   PUBLIC    CODE     ---       _LCD_ShowString
      01000399H   PUBLIC    CODE     ---       LCD_Init
      0100036EH   PUBLIC    CODE     ---       _LCD_SetCursor
      01000347H   PUBLIC    CODE     ---       _LCD_WriteData
      010003D8H   PUBLIC    CODE     ---       _LCD_WriteCommand
      010003C3H   PUBLIC    CODE     ---       LCD_Delay

      010003BDH   BLOCK     CODE     ---       LVL=0
      ---         BLOCKEND  ---      ---       LVL=0

      010003C3H   BLOCK     CODE     ---       LVL=0
      010003C3H   BLOCK     CODE     NEAR LAB  LVL=1
      00000007H   SYMBOL    DATA     VOID      i
      00000006H   SYMBOL    DATA     VOID      j
LX51 LINKER/LOCATER V4.66.41.0                                                        07/21/2023  21:20:36  PAGE 4


      ---         BLOCKEND  ---      ---       LVL=1
      ---         BLOCKEND  ---      ---       LVL=0

      010003D8H   BLOCK     CODE     ---       LVL=0
      ---         BLOCKEND  ---      ---       LVL=0

      01000333H   BLOCK     CODE     ---       LVL=0
      ---         BLOCKEND  ---      ---       LVL=0

      01000347H   BLOCK     CODE     ---       LVL=0
      ---         BLOCKEND  ---      ---       LVL=0

      0100036EH   BLOCK     CODE     ---       LVL=0
      ---         BLOCKEND  ---      ---       LVL=0

      01000399H   BLOCK     CODE     ---       LVL=0
      ---         BLOCKEND  ---      ---       LVL=0

      01000310H   BLOCK     CODE     ---       LVL=0
      01000316H   BLOCK     CODE     NEAR LAB  LVL=1
      00000005H   SYMBOL    DATA     VOID      i
      ---         BLOCKEND  ---      ---       LVL=1
      ---         BLOCKEND  ---      ---       LVL=0

      010002DDH   BLOCK     CODE     ---       LVL=0
      ---         BLOCKEND  ---      ---       LVL=0

      010002E9H   BLOCK     CODE     ---       LVL=0
      010002F1H   BLOCK     CODE     NEAR LAB  LVL=1
      00000003H   SYMBOL    DATA     VOID      i
      00000006H   SYMBOL    DATA     VOID      Result
      ---         BLOCKEND  ---      ---       LVL=1
      ---         BLOCKEND  ---      ---       LVL=0

      01000351H   BLOCK     CODE     ---       LVL=0
      01000355H   BLOCK     CODE     NEAR LAB  LVL=1
      00000002H   SYMBOL    DATA     VOID      i
      ---         BLOCKEND  ---      ---       LVL=1
      ---         BLOCKEND  ---      ---       LVL=0
      00000002H   SYMBOL    DATA     VOID      i
      00000002H   SYMBOL    DATA     VOID      i
      00000006H   SYMBOL    DATA     VOID      SingleNumber
      00000002H   SYMBOL    DATA     VOID      i

      ---         MODULE    ---      ---       MATIXKEY
      01000003H   PUBLIC    CODE     ---       MatrixKey

      01000003H   BLOCK     CODE     ---       LVL=0
      01000003H   BLOCK     CODE     NEAR LAB  LVL=1
      00000008H   SYMBOL    DATA     VOID      KeyNumber
      ---         BLOCKEND  ---      ---       LVL=1
      ---         BLOCKEND  ---      ---       LVL=0

      ---         MODULE    ---      ---       MAIN
      00000015H   PUBLIC    DATA     BYTE      KeyNum
      00000013H   PUBLIC    DATA     WORD      Password
      00000011H   PUBLIC    DATA     WORD      count
      0100018CH   PUBLIC    CODE     ---       main

      0100018CH   BLOCK     CODE     ---       LVL=0
      ---         BLOCKEND  ---      ---       LVL=0

      ---         MODULE    ---      ---       ?C_STARTUP
      01000000H   PUBLIC    CODE     ---       ?C_STARTUP

LX51 LINKER/LOCATER V4.66.41.0                                                        07/21/2023  21:20:36  PAGE 5


      ---         MODULE    ---      ---       ?C?CLDOPTR
      01000249H   PUBLIC    CODE     ---       ?C?CLDOPTR

      ---         MODULE    ---      ---       ?C?IMUL
      01000276H   PUBLIC    CODE     ---       ?C?IMUL

      ---         MODULE    ---      ---       ?C?UIDIV
      01000288H   PUBLIC    CODE     ---       ?C?UIDIV

Program Size: data=23.0 xdata=0 const=0 code=994
LX51 RUN COMPLETE.  0 WARNING(S),  0 ERROR(S)
