C51 COMPILER V9.54   ONEWIRE                                                               08/04/2023 23:22:50 PAGE 1   


C51 COMPILER V9.54, COMPILATION OF MODULE ONEWIRE
OBJECT MODULE PLACED IN .\build\Release\src\OneWire.o
COMPILER INVOKED BY: d:\keil\C51\BIN\C51.exe .\SRC\ONEWIRE.C OMF2 TABS(4) CODE NOCOND SYMBOLS PRINT(.\build\Release\src\
                    -OneWire.lst) INCDIR(d:/keil/C51/INC;src) DEFINE(__UVISION_VERSION=526) OPTIMIZE(8,SPEED) SMALL ROM(LARGE) OBJECT(.\build
                    -\Release\src\OneWire.o)

line level    source

   1          #include<REG51.H>
   2          
   3          sbit OneWire_DQ=P3^7;
   4          
   5          unsigned char OneWire_Init(void)
   6          {
   7   1          unsigned char i;
   8   1          unsigned char AckBit;
   9   1          OneWire_DQ=1;
  10   1          OneWire_DQ=0;
  11   1      
  12   1          i = 227;while (--i);       //Delay  500us
  13   1          OneWire_DQ=1;
  14   1          i = 29;while (--i);       //delay  70us
  15   1          AckBit=OneWire_DQ;
  16   1          i = 227;while (--i);       //Delay  500us
  17   1          return AckBit;
  18   1      }
  19          
  20          void OneWire_SendBit(unsigned char Bit)
  21          {
  22   1          unsigned char i;   
  23   1          OneWire_DQ=0;    
  24   1          
  25   1          i = 3;while (--i);      //Delay  10us
  26   1          OneWire_DQ=Bit;
  27   1          i = 22;while (--i);      //Delay  50us
  28   1          OneWire_DQ=1;
  29   1      }
  30          
  31          unsigned char OneWire_ReceiveBit(void)
  32          {
  33   1          unsigned char i;
  34   1          unsigned char Bit;
  35   1          OneWire_DQ=0;
  36   1          i = 1;while (--i);     //Delay  5us
  37   1          OneWire_DQ=1;
  38   1          i = 1;while (--i);     //Delay  5us
  39   1          Bit=OneWire_DQ;
  40   1          i = 22;while (--i);      //Delay  50us
  41   1          return Bit;
  42   1      }
  43          
  44          
  45          
  46          void OneWire_SendByte(unsigned char Byte)
  47          {
  48   1          unsigned char i;
  49   1          for ( i = 0; i < 8; i++)
  50   1          {
  51   2             OneWire_SendBit(Byte&(0x01<<i));
  52   2          }
  53   1          
C51 COMPILER V9.54   ONEWIRE                                                               08/04/2023 23:22:50 PAGE 2   

  54   1      }
  55          
  56          unsigned char OneWire_ReceiveByte(void)
  57          {
  58   1          unsigned char i;
  59   1          unsigned char Byte=0x00;
  60   1          for ( i = 0; i < 8; i++)
  61   1          {
  62   2              if(OneWire_ReceiveBit()){Byte|=(0x01<<i);}
  63   2          }
  64   1          return Byte;
  65   1      }
C51 COMPILER V9.54   ONEWIRE                                                               08/04/2023 23:22:50 PAGE 3   

ASSEMBLY LISTING OF GENERATED OBJECT CODE


             ; FUNCTION OneWire_Init (BEGIN)
                                           ; SOURCE LINE # 5
                                           ; SOURCE LINE # 6
                                           ; SOURCE LINE # 9
0000 D2B7              SETB    OneWire_DQ
                                           ; SOURCE LINE # 10
0002 C2B7              CLR     OneWire_DQ
                                           ; SOURCE LINE # 12
;---- Variable 'i' assigned to Register 'R7' ----
0004 7FE3              MOV     R7,#0E3H
0006         ?C0001:
0006 DFFE              DJNZ    R7,?C0001
0008         ?C0002:
                                           ; SOURCE LINE # 13
0008 D2B7              SETB    OneWire_DQ
                                           ; SOURCE LINE # 14
000A 7F1D              MOV     R7,#01DH
000C         ?C0003:
000C DFFE              DJNZ    R7,?C0003
000E         ?C0004:
                                           ; SOURCE LINE # 15
000E A2B7              MOV     C,OneWire_DQ
0010 E4                CLR     A
0011 33                RLC     A
;---- Variable 'AckBit' assigned to Register 'R6' ----
0012 FE                MOV     R6,A
                                           ; SOURCE LINE # 16
0013 7FE3              MOV     R7,#0E3H
0015         ?C0005:
0015 DFFE              DJNZ    R7,?C0005
0017         ?C0006:
                                           ; SOURCE LINE # 17
0017 AF06              MOV     R7,AR6
                                           ; SOURCE LINE # 18
0019         ?C0007:
0019 22                RET     
             ; FUNCTION OneWire_Init (END)

             ; FUNCTION _OneWire_SendBit (BEGIN)
                                           ; SOURCE LINE # 20
;---- Variable 'Bit' assigned to Register 'R7' ----
                                           ; SOURCE LINE # 21
                                           ; SOURCE LINE # 23
0000 C2B7              CLR     OneWire_DQ
                                           ; SOURCE LINE # 25
;---- Variable 'i' assigned to Register 'R6' ----
0002 7E03              MOV     R6,#03H
0004         ?C0008:
0004 DEFE              DJNZ    R6,?C0008
0006         ?C0009:
                                           ; SOURCE LINE # 26
0006 EF                MOV     A,R7
0007 24FF              ADD     A,#0FFH
0009 92B7              MOV     OneWire_DQ,C
                                           ; SOURCE LINE # 27
000B 7E16              MOV     R6,#016H
000D         ?C0010:
000D DEFE              DJNZ    R6,?C0010
000F         ?C0011:
C51 COMPILER V9.54   ONEWIRE                                                               08/04/2023 23:22:50 PAGE 4   

                                           ; SOURCE LINE # 28
000F D2B7              SETB    OneWire_DQ
                                           ; SOURCE LINE # 29
0011 22                RET     
             ; FUNCTION _OneWire_SendBit (END)

             ; FUNCTION OneWire_ReceiveBit (BEGIN)
                                           ; SOURCE LINE # 31
                                           ; SOURCE LINE # 32
                                           ; SOURCE LINE # 35
0000 C2B7              CLR     OneWire_DQ
                                           ; SOURCE LINE # 36
;---- Variable 'i' assigned to Register 'R7' ----
0002 7F01              MOV     R7,#01H
0004         ?C0013:
0004 DFFE              DJNZ    R7,?C0013
0006         ?C0014:
                                           ; SOURCE LINE # 37
0006 D2B7              SETB    OneWire_DQ
                                           ; SOURCE LINE # 38
0008 7F01              MOV     R7,#01H
000A         ?C0015:
000A DFFE              DJNZ    R7,?C0015
000C         ?C0016:
                                           ; SOURCE LINE # 39
000C A2B7              MOV     C,OneWire_DQ
000E E4                CLR     A
000F 33                RLC     A
;---- Variable 'Bit' assigned to Register 'R6' ----
0010 FE                MOV     R6,A
                                           ; SOURCE LINE # 40
0011 7F16              MOV     R7,#016H
0013         ?C0017:
0013 DFFE              DJNZ    R7,?C0017
0015         ?C0018:
                                           ; SOURCE LINE # 41
0015 AF06              MOV     R7,AR6
                                           ; SOURCE LINE # 42
0017         ?C0019:
0017 22                RET     
             ; FUNCTION OneWire_ReceiveBit (END)

             ; FUNCTION _OneWire_SendByte (BEGIN)
                                           ; SOURCE LINE # 46
;---- Variable 'Byte' assigned to Register 'R5' ----
0000 AD07              MOV     R5,AR7
                                           ; SOURCE LINE # 47
                                           ; SOURCE LINE # 49
;---- Variable 'i' assigned to Register 'R4' ----
0002 E4                CLR     A
0003 FC                MOV     R4,A
0004         ?C0020:
                                           ; SOURCE LINE # 50
                                           ; SOURCE LINE # 51
0004 7401              MOV     A,#01H
0006 A804              MOV     R0,AR4
0008 08                INC     R0
0009 8002              SJMP    ?C0030
000B         ?C0029:
000B C3                CLR     C
000C 33                RLC     A
000D         ?C0030:
C51 COMPILER V9.54   ONEWIRE                                                               08/04/2023 23:22:50 PAGE 5   

000D D8FC              DJNZ    R0,?C0029
000F 5D                ANL     A,R5
0010 FF                MOV     R7,A
0011 120000      R     LCALL   _OneWire_SendBit
                                           ; SOURCE LINE # 52
0014 0C                INC     R4
0015 BC08EC            CJNE    R4,#08H,?C0020
                                           ; SOURCE LINE # 54
0018         ?C0023:
0018 22                RET     
             ; FUNCTION _OneWire_SendByte (END)

             ; FUNCTION OneWire_ReceiveByte (BEGIN)
                                           ; SOURCE LINE # 56
                                           ; SOURCE LINE # 57
                                           ; SOURCE LINE # 59
;---- Variable 'Byte' assigned to Register 'R5' ----
0000 E4                CLR     A
0001 FD                MOV     R5,A
                                           ; SOURCE LINE # 60
;---- Variable 'i' assigned to Register 'R4' ----
0002 FC                MOV     R4,A
0003         ?C0024:
                                           ; SOURCE LINE # 61
                                           ; SOURCE LINE # 62
0003 120000      R     LCALL   OneWire_ReceiveBit
0006 EF                MOV     A,R7
0007 600D              JZ      ?C0026
0009 7401              MOV     A,#01H
000B A804              MOV     R0,AR4
000D 08                INC     R0
000E 8002              SJMP    ?C0032
0010         ?C0031:
0010 C3                CLR     C
0011 33                RLC     A
0012         ?C0032:
0012 D8FC              DJNZ    R0,?C0031
0014 4205              ORL     AR5,A
                                           ; SOURCE LINE # 63
0016         ?C0026:
0016 0C                INC     R4
0017 BC08E9            CJNE    R4,#08H,?C0024
001A         ?C0025:
                                           ; SOURCE LINE # 64
001A AF05              MOV     R7,AR5
                                           ; SOURCE LINE # 65
001C         ?C0028:
001C 22                RET     
             ; FUNCTION OneWire_ReceiveByte (END)

C51 COMPILER V9.54   ONEWIRE                                                               08/04/2023 23:22:50 PAGE 6   

NAME                                    CLASS   MSPACE  TYPE    OFFSET  SIZE
====                                    =====   ======  ====    ======  ====


P0 . . . . . . . . . . . . . . . . . .  SFR      DATA   U_CHAR   0080H  1
P1 . . . . . . . . . . . . . . . . . .  SFR      DATA   U_CHAR   0090H  1
P2 . . . . . . . . . . . . . . . . . .  SFR      DATA   U_CHAR   00A0H  1
P3 . . . . . . . . . . . . . . . . . .  SFR      DATA   U_CHAR   00B0H  1
T0 . . . . . . . . . . . . . . . . . .  ABSBIT   -----  BIT      00B4H  1
AC . . . . . . . . . . . . . . . . . .  ABSBIT   -----  BIT      00D6H  1
T1 . . . . . . . . . . . . . . . . . .  ABSBIT   -----  BIT      00B5H  1
EA . . . . . . . . . . . . . . . . . .  ABSBIT   -----  BIT      00AFH  1
OneWire_ReceiveBit . . . . . . . . . .  PUBLIC   CODE   PROC     0000H  -----
  i. . . . . . . . . . . . . . . . . .  * REG *  DATA   U_CHAR   0007H  1
  Bit. . . . . . . . . . . . . . . . .  * REG *  DATA   U_CHAR   0006H  1
IE . . . . . . . . . . . . . . . . . .  SFR      DATA   U_CHAR   00A8H  1
RD . . . . . . . . . . . . . . . . . .  ABSBIT   -----  BIT      00B7H  1
ES . . . . . . . . . . . . . . . . . .  ABSBIT   -----  BIT      00ACH  1
IP . . . . . . . . . . . . . . . . . .  SFR      DATA   U_CHAR   00B8H  1
RI . . . . . . . . . . . . . . . . . .  ABSBIT   -----  BIT      0098H  1
INT0 . . . . . . . . . . . . . . . . .  ABSBIT   -----  BIT      00B2H  1
CY . . . . . . . . . . . . . . . . . .  ABSBIT   -----  BIT      00D7H  1
TI . . . . . . . . . . . . . . . . . .  ABSBIT   -----  BIT      0099H  1
INT1 . . . . . . . . . . . . . . . . .  ABSBIT   -----  BIT      00B3H  1
PS . . . . . . . . . . . . . . . . . .  ABSBIT   -----  BIT      00BCH  1
SP . . . . . . . . . . . . . . . . . .  SFR      DATA   U_CHAR   0081H  1
OV . . . . . . . . . . . . . . . . . .  ABSBIT   -----  BIT      00D2H  1
WR . . . . . . . . . . . . . . . . . .  ABSBIT   -----  BIT      00B6H  1
SBUF . . . . . . . . . . . . . . . . .  SFR      DATA   U_CHAR   0099H  1
PCON . . . . . . . . . . . . . . . . .  SFR      DATA   U_CHAR   0087H  1
OneWire_DQ . . . . . . . . . . . . . .  ABSBIT   -----  BIT      00B7H  1
OneWire_Init . . . . . . . . . . . . .  PUBLIC   CODE   PROC     0000H  -----
  i. . . . . . . . . . . . . . . . . .  * REG *  DATA   U_CHAR   0007H  1
  AckBit . . . . . . . . . . . . . . .  * REG *  DATA   U_CHAR   0006H  1
SCON . . . . . . . . . . . . . . . . .  SFR      DATA   U_CHAR   0098H  1
TMOD . . . . . . . . . . . . . . . . .  SFR      DATA   U_CHAR   0089H  1
TCON . . . . . . . . . . . . . . . . .  SFR      DATA   U_CHAR   0088H  1
IE0. . . . . . . . . . . . . . . . . .  ABSBIT   -----  BIT      0089H  1
IE1. . . . . . . . . . . . . . . . . .  ABSBIT   -----  BIT      008BH  1
_OneWire_SendByte. . . . . . . . . . .  PUBLIC   CODE   PROC     0000H  -----
  Byte . . . . . . . . . . . . . . . .  * REG *  DATA   U_CHAR   0005H  1
  i. . . . . . . . . . . . . . . . . .  * REG *  DATA   U_CHAR   0004H  1
B. . . . . . . . . . . . . . . . . . .  SFR      DATA   U_CHAR   00F0H  1
ACC. . . . . . . . . . . . . . . . . .  SFR      DATA   U_CHAR   00E0H  1
ET0. . . . . . . . . . . . . . . . . .  ABSBIT   -----  BIT      00A9H  1
ET1. . . . . . . . . . . . . . . . . .  ABSBIT   -----  BIT      00ABH  1
TF0. . . . . . . . . . . . . . . . . .  ABSBIT   -----  BIT      008DH  1
_OneWire_SendBit . . . . . . . . . . .  PUBLIC   CODE   PROC     0000H  -----
  Bit. . . . . . . . . . . . . . . . .  * REG *  DATA   U_CHAR   0007H  1
  i. . . . . . . . . . . . . . . . . .  * REG *  DATA   U_CHAR   0006H  1
TF1. . . . . . . . . . . . . . . . . .  ABSBIT   -----  BIT      008FH  1
RB8. . . . . . . . . . . . . . . . . .  ABSBIT   -----  BIT      009AH  1
TH0. . . . . . . . . . . . . . . . . .  SFR      DATA   U_CHAR   008CH  1
EX0. . . . . . . . . . . . . . . . . .  ABSBIT   -----  BIT      00A8H  1
IT0. . . . . . . . . . . . . . . . . .  ABSBIT   -----  BIT      0088H  1
TH1. . . . . . . . . . . . . . . . . .  SFR      DATA   U_CHAR   008DH  1
TB8. . . . . . . . . . . . . . . . . .  ABSBIT   -----  BIT      009BH  1
EX1. . . . . . . . . . . . . . . . . .  ABSBIT   -----  BIT      00AAH  1
IT1. . . . . . . . . . . . . . . . . .  ABSBIT   -----  BIT      008AH  1
P. . . . . . . . . . . . . . . . . . .  ABSBIT   -----  BIT      00D0H  1
SM0. . . . . . . . . . . . . . . . . .  ABSBIT   -----  BIT      009FH  1
C51 COMPILER V9.54   ONEWIRE                                                               08/04/2023 23:22:50 PAGE 7   

NAME                                    CLASS   MSPACE  TYPE    OFFSET  SIZE
====                                    =====   ======  ====    ======  ====


TL0. . . . . . . . . . . . . . . . . .  SFR      DATA   U_CHAR   008AH  1
SM1. . . . . . . . . . . . . . . . . .  ABSBIT   -----  BIT      009EH  1
TL1. . . . . . . . . . . . . . . . . .  SFR      DATA   U_CHAR   008BH  1
SM2. . . . . . . . . . . . . . . . . .  ABSBIT   -----  BIT      009DH  1
PT0. . . . . . . . . . . . . . . . . .  ABSBIT   -----  BIT      00B9H  1
PT1. . . . . . . . . . . . . . . . . .  ABSBIT   -----  BIT      00BBH  1
RS0. . . . . . . . . . . . . . . . . .  ABSBIT   -----  BIT      00D3H  1
TR0. . . . . . . . . . . . . . . . . .  ABSBIT   -----  BIT      008CH  1
RS1. . . . . . . . . . . . . . . . . .  ABSBIT   -----  BIT      00D4H  1
TR1. . . . . . . . . . . . . . . . . .  ABSBIT   -----  BIT      008EH  1
PX0. . . . . . . . . . . . . . . . . .  ABSBIT   -----  BIT      00B8H  1
PX1. . . . . . . . . . . . . . . . . .  ABSBIT   -----  BIT      00BAH  1
DPH. . . . . . . . . . . . . . . . . .  SFR      DATA   U_CHAR   0083H  1
DPL. . . . . . . . . . . . . . . . . .  SFR      DATA   U_CHAR   0082H  1
REN. . . . . . . . . . . . . . . . . .  ABSBIT   -----  BIT      009CH  1
RXD. . . . . . . . . . . . . . . . . .  ABSBIT   -----  BIT      00B0H  1
TXD. . . . . . . . . . . . . . . . . .  ABSBIT   -----  BIT      00B1H  1
F0 . . . . . . . . . . . . . . . . . .  ABSBIT   -----  BIT      00D5H  1
PSW. . . . . . . . . . . . . . . . . .  SFR      DATA   U_CHAR   00D0H  1
OneWire_ReceiveByte. . . . . . . . . .  PUBLIC   CODE   PROC     0000H  -----
  i. . . . . . . . . . . . . . . . . .  * REG *  DATA   U_CHAR   0004H  1
  Byte . . . . . . . . . . . . . . . .  * REG *  DATA   U_CHAR   0005H  1


MODULE INFORMATION:   STATIC OVERLAYABLE
   CODE SIZE        =    122    ----
   CONSTANT SIZE    =   ----    ----
   XDATA SIZE       =   ----    ----
   PDATA SIZE       =   ----    ----
   DATA SIZE        =   ----    ----
   IDATA SIZE       =   ----    ----
   BIT SIZE         =   ----    ----
   EDATA SIZE       =   ----    ----
   HDATA SIZE       =   ----    ----
   XDATA CONST SIZE =   ----    ----
   FAR CONST SIZE   =   ----    ----
END OF MODULE INFORMATION.


C51 COMPILATION COMPLETE.  0 WARNING(S),  0 ERROR(S)
